target datalayout = "e-m:e-p270:32:32-p271:32:32-p272:64:64-i64:64-i128:128-f80:128-n8:16:32:64-S128"
target triple = "x86_64-pc-linux-gnu"

; Function Attrs: inlinehint nounwind sspstrong willreturn memory(none) uwtable
define internal zeroext i1 @RB_NIL_P(i64 noundef %0) #12 {
  %2 = alloca i64, align 8
  store i64 %0, ptr %2, align 8, !tbaa !16
  %3 = load i64, ptr %2, align 8, !tbaa !16
  %4 = icmp eq i64 %3, 4
  ret i1 %4
}

; Function Attrs: nounwind sspstrong uwtable
define internal i64 @aryptn_pre_args(ptr noundef %0, i64 noundef %1, i64 noundef %2) #0 {
  %4 = alloca ptr, align 8
  %5 = alloca i64, align 8
  %6 = alloca i64, align 8
  store ptr %0, ptr %4, align 8, !tbaa !6
  store i64 %1, ptr %5, align 8, !tbaa !16
  store i64 %2, ptr %6, align 8, !tbaa !16
  %7 = load i64, ptr %5, align 8, !tbaa !16
  %8 = call zeroext i1 @RB_NIL_P(i64 noundef %7) #28
  br i1 %8, label %20, label %9

9:                                                ; preds = %3
  %10 = load i64, ptr %6, align 8, !tbaa !16
  %11 = call zeroext i1 @RB_NIL_P(i64 noundef %10) #28
  br i1 %11, label %16, label %12

12:                                               ; preds = %9
  %13 = load i64, ptr %6, align 8, !tbaa !16
  %14 = load i64, ptr %5, align 8, !tbaa !16
  %15 = call i64 @rb_ary_unshift(i64 noundef %13, i64 noundef %14)
  br label %19

16:                                               ; preds = %9
  %17 = load i64, ptr %5, align 8, !tbaa !16
  %18 = call i64 (i64, ...) @rb_ary_new_from_args(i64 noundef 1, i64 noundef %17)
  store i64 %18, ptr %6, align 8, !tbaa !16
  br label %19

19:                                               ; preds = %16, %12
  br label %20

20:                                               ; preds = %19, %3
  %21 = load i64, ptr %6, align 8, !tbaa !16
  ret i64 %21
}