; Function Attrs: nounwind sspstrong uwtable
define internal fastcc i64 @aryptn_pre_args(i64 noundef %0, i64 noundef %1) unnamed_addr #0 {
  %3 = icmp eq i64 %0, 4
  br i1 %3, label %10, label %4

4:                                                ; preds = %2
  %5 = icmp eq i64 %1, 4
  br i1 %5, label %8, label %6

6:                                                ; preds = %4
  %7 = tail call i64 @rb_ary_unshift(i64 noundef %1, i64 noundef %0) #31
  br label %10

8:                                                ; preds = %4
  %9 = tail call i64 (i64, ...) @rb_ary_new_from_args(i64 noundef 1, i64 noundef %0) #31
  br label %10

10:                                               ; preds = %6, %8, %2
  %.0 = phi i64 [ %1, %2 ], [ %9, %8 ], [ %1, %6 ]
  ret i64 %.0
}